Certificate:
    Data:
        Version: 3 (0x2)
        Serial Number: 4096 (0x1000)
    Signature Algorithm: sha256WithRSAEncryption
        Issuer: C=US, ST=Georgia, L=Atlanta, O=Cyntax, OU=Developers, CN=cyntax/emailAddress=brandon@cyntax.org
        Validity
            Not Before: Apr  3 19:21:49 2019 GMT
            Not After : Apr  2 19:21:49 2020 GMT
        Subject: C=US, ST=SOUTH CAROLINA, L=SPARTANBURG, O=PKILAB, OU=LAB, CN=PKILAB/emailAddress=BRANDON@PKILAB.COM
        Subject Public Key Info:
            Public Key Algorithm: rsaEncryption
                Public-Key: (1024 bit)
                Modulus:
                    00:a5:0a:79:28:95:13:35:25:67:53:8a:e7:78:97:
                    db:f5:a0:01:5a:d3:fc:16:5e:64:0b:1f:d9:1a:fd:
                    1a:84:ee:ce:92:48:5d:9d:30:e6:6c:2b:34:06:49:
                    c9:a6:7b:c7:5e:e0:82:13:23:6c:28:33:81:0b:57:
                    aa:45:7f:9d:e8:e7:e4:fa:11:9c:8c:97:3b:f5:68:
                    7b:4b:46:00:06:2e:b7:49:30:02:45:d2:9f:27:46:
                    ae:5f:4f:07:2c:00:8d:46:d2:8f:9c:81:70:0b:d1:
                    7d:4d:57:c5:d6:c5:97:f3:10:c9:20:bd:10:46:6f:
                    5b:64:52:e5:20:90:a7:50:21
                Exponent: 65537 (0x10001)
        X509v3 extensions:
            X509v3 Basic Constraints: 
                CA:FALSE
            Netscape Comment: 
                OpenSSL Generated Certificate
            X509v3 Subject Key Identifier: 
                BB:6E:1E:3C:A0:02:66:71:94:9D:40:1A:E7:B1:62:C7:A6:7D:46:3C
            X509v3 Authority Key Identifier: 
                DirName:/C=US/ST=Georgia/L=Atlanta/O=Cyntax/OU=Developers/CN=cyntax/emailAddress=brandon@cyntax.org
                serial:E1:02:22:EF:22:B3:AC:6B

    Signature Algorithm: sha256WithRSAEncryption
         48:34:7d:2b:37:56:8f:a4:c9:c6:9d:d0:62:9b:62:f8:9a:1b:
         75:c2:e2:e9:e4:3b:93:e3:d1:a7:73:a6:e5:97:96:df:a8:c5:
         8e:cb:9a:04:6f:09:d6:f5:8b:b5:c3:7f:e0:4a:f5:9c:fe:df:
         a4:ef:de:10:7e:e1:63:d9:48:02:b2:33:f0:c6:7e:7b:59:95:
         14:82:52:56:71:d1:66:25:0a:a9:63:58:82:09:4b:2e:81:c6:
         e2:ce:e9:64:5e:47:75:58:46:f1:46:06:ff:92:84:5b:9d:05:
         16:c3:79:8a:4e:39:b0:14:33:d3:28:53:eb:87:a2:63:ba:aa:
         6d:07:a4:01:a5:ab:29:f5:08:d5:5a:10:eb:a1:ec:61:d3:ad:
         09:be:90:17:6f:2d:dd:58:e6:03:17:e8:4a:07:c9:81:27:ee:
         36:f3:fc:0d:22:9a:b7:85:1d:64:af:ae:38:e8:3e:8a:19:78:
         24:ee:0f:47:e4:14:b1:28:ad:8c:bd:91:bb:76:65:88:cf:df:
         5c:a1:4c:5e:fc:c9:09:f7:8e:3a:f0:08:56:3b:42:88:2d:5a:
         5c:f3:53:0c:a3:70:49:3e:d9:95:7b:ac:3b:0e:f7:11:26:16:
         37:c8:a0:48:32:0f:0f:be:fe:b4:1d:24:4a:8f:fc:9c:a5:0f:
         fb:dd:18:73
-----BEGIN CERTIFICATE-----
MIIEHzCCAwegAwIBAgICEAAwDQYJKoZIhvcNAQELBQAwgYsxCzAJBgNVBAYTAlVT
MRAwDgYDVQQIDAdHZW9yZ2lhMRAwDgYDVQQHDAdBdGxhbnRhMQ8wDQYDVQQKDAZD
eW50YXgxEzARBgNVBAsMCkRldmVsb3BlcnMxDzANBgNVBAMMBmN5bnRheDEhMB8G
CSqGSIb3DQEJARYSYnJhbmRvbkBjeW50YXgub3JnMB4XDTE5MDQwMzE5MjE0OVoX
DTIwMDQwMjE5MjE0OVowgY8xCzAJBgNVBAYTAlVTMRcwFQYDVQQIDA5TT1VUSCBD
QVJPTElOQTEUMBIGA1UEBwwLU1BBUlRBTkJVUkcxDzANBgNVBAoMBlBLSUxBQjEM
MAoGA1UECwwDTEFCMQ8wDQYDVQQDDAZQS0lMQUIxITAfBgkqhkiG9w0BCQEWEkJS
QU5ET05AUEtJTEFCLkNPTTCBnzANBgkqhkiG9w0BAQEFAAOBjQAwgYkCgYEApQp5
KJUTNSVnU4rneJfb9aABWtP8Fl5kCx/ZGv0ahO7OkkhdnTDmbCs0BknJpnvHXuCC
EyNsKDOBC1eqRX+d6Ofk+hGcjJc79Wh7S0YABi63STACRdKfJ0auX08HLACNRtKP
nIFwC9F9TVfF1sWX8xDJIL0QRm9bZFLlIJCnUCECAwEAAaOCAQkwggEFMAkGA1Ud
EwQCMAAwLAYJYIZIAYb4QgENBB8WHU9wZW5TU0wgR2VuZXJhdGVkIENlcnRpZmlj
YXRlMB0GA1UdDgQWBBS7bh48oAJmcZSdQBrnsWLHpn1GPDCBqgYDVR0jBIGiMIGf
oYGRpIGOMIGLMQswCQYDVQQGEwJVUzEQMA4GA1UECAwHR2VvcmdpYTEQMA4GA1UE
BwwHQXRsYW50YTEPMA0GA1UECgwGQ3ludGF4MRMwEQYDVQQLDApEZXZlbG9wZXJz
MQ8wDQYDVQQDDAZjeW50YXgxITAfBgkqhkiG9w0BCQEWEmJyYW5kb25AY3ludGF4
Lm9yZ4IJAOECIu8is6xrMA0GCSqGSIb3DQEBCwUAA4IBAQBINH0rN1aPpMnGndBi
m2L4mht1wuLp5DuT49Gnc6bll5bfqMWOy5oEbwnW9Yu1w3/gSvWc/t+k794QfuFj
2UgCsjPwxn57WZUUglJWcdFmJQqpY1iCCUsugcbizulkXkd1WEbxRgb/koRbnQUW
w3mKTjmwFDPTKFPrh6JjuqptB6QBpasp9QjVWhDroexh060JvpAXby3dWOYDF+hK
B8mBJ+428/wNIpq3hR1kr6446D6KGXgk7g9H5BSxKK2MvZG7dmWIz99coUxe/MkJ
94468AhWO0KILVpc81MMo3BJPtmVe6w7DvcRJhY3yKBIMg8Pvv60HSRKj/ycpQ/7
3Rhz
-----END CERTIFICATE-----
